; Function Attrs: nofree norecurse nosync nounwind memory(readwrite, inaccessiblemem: none) uwtable
define hidden void @av1_highbd_dist_wtd_convolve_x_c(ptr noundef readonly captures(none) %0, i32 noundef %1, ptr noundef writeonly captures(none) %2, i32 noundef %3, i32 noundef %4, i32 noundef %5, ptr noundef readonly captures(none) %6, i32 noundef %7, ptr noundef readonly captures(none) %8, i32 noundef %9) local_unnamed_addr #2 {
  %11 = getelementptr inbounds nuw i8, ptr %8, i64 8
  %12 = load ptr, ptr %11, align 8
  %13 = getelementptr inbounds nuw i8, ptr %8, i64 16
  %14 = load i32, ptr %13, align 8
  %15 = getelementptr inbounds nuw i8, ptr %6, i64 8
  %16 = load i16, ptr %15, align 8
  %17 = getelementptr inbounds nuw i8, ptr %8, i64 24
  %18 = load i32, ptr %17, align 8
  %19 = sub nsw i32 7, %18
  %20 = add nsw i32 %9, 14
  %21 = getelementptr inbounds nuw i8, ptr %8, i64 20
  %22 = load i32, ptr %21, align 4
  %23 = add i32 %22, %18
  %24 = sub i32 %20, %23
  %25 = shl nuw i32 1, %24
  %26 = add nsw i32 %24, -1
  %27 = shl nuw i32 1, %26
  %28 = add nsw i32 %27, %25
  %29 = sub i32 14, %23
  %30 = and i32 %7, 15
  %.val = load ptr, ptr %6, align 8
  %31 = zext i16 %16 to i32
  %32 = mul nuw nsw i32 %30, %31
  %33 = zext nneg i32 %32 to i64
  %34 = getelementptr inbounds nuw i16, ptr %.val, i64 %33
  %35 = icmp sgt i32 %5, 0
  br i1 %35, label %.preheader75.lr.ph, label %._crit_edge81

.preheader75.lr.ph:                               ; preds = %10
  %36 = lshr i16 %16, 1
  %37 = zext nneg i16 %36 to i32
  %38 = icmp sgt i32 %4, 0
  %39 = getelementptr inbounds nuw i8, ptr %8, i64 36
  %40 = getelementptr inbounds nuw i8, ptr %8, i64 40
  %41 = getelementptr inbounds nuw i8, ptr %8, i64 44
  %42 = shl nuw i32 1, %29
  %43 = ashr i32 %42, 1
  %44 = sub i32 %43, %28
  br i1 %38, label %.preheader75.us.preheader, label %._crit_edge81

.preheader75.us.preheader:                        ; preds = %.preheader75.lr.ph
  %45 = sext i32 %14 to i64
  %46 = sext i32 %3 to i64
  %wide.trip.count92 = zext nneg i32 %5 to i64
  %wide.trip.count87 = zext nneg i32 %4 to i64
  br label %.preheader75.us

.preheader75.us:                                  ; preds = %.preheader75.us.preheader, %._crit_edge79.us
  %indvars.iv89 = phi i64 [ 0, %.preheader75.us.preheader ], [ %indvars.iv.next90, %._crit_edge79.us ]
  %47 = trunc i64 %indvars.iv89 to i32
  %48 = mul i32 %1, %47
  %reass.sub = sub i32 %48, %37
  %49 = add i32 %reass.sub, 1
  %50 = mul nsw i64 %indvars.iv89, %45
  %51 = mul nsw i64 %indvars.iv89, %46
  %invariant.gep94 = getelementptr i16, ptr %12, i64 %50
  %invariant.gep96 = getelementptr i16, ptr %2, i64 %51
  %invariant.gep98 = getelementptr i16, ptr %12, i64 %50
  br label %.preheader.us

._crit_edge.us:                                   ; preds = %88, %.preheader.us
  %.067.lcssa.us = phi i32 [ 0, %.preheader.us ], [ %95, %88 ]
  %52 = load i32, ptr %21, align 4
  %53 = shl nuw i32 1, %52
  %54 = ashr i32 %53, 1
  %55 = add nsw i32 %54, %.067.lcssa.us
  %56 = ashr i32 %55, %52
  %57 = shl i32 %56, %19
  %58 = add nsw i32 %57, %28
  %59 = load i32, ptr %8, align 8
  %.not.us = icmp eq i32 %59, 0
  br i1 %.not.us, label %85, label %60

60:                                               ; preds = %._crit_edge.us
  %gep95 = getelementptr i16, ptr %invariant.gep94, i64 %indvars.iv84
  %61 = load i16, ptr %gep95, align 2
  %62 = zext i16 %61 to i32
  %63 = load i32, ptr %39, align 4
  %.not70.us = icmp eq i32 %63, 0
  br i1 %.not70.us, label %71, label %64

64:                                               ; preds = %60
  %65 = load i32, ptr %40, align 8
  %66 = mul nsw i32 %65, %62
  %67 = load i32, ptr %41, align 4
  %68 = mul nsw i32 %67, %58
  %69 = add nsw i32 %68, %66
  %70 = ashr i32 %69, 4
  br label %74

71:                                               ; preds = %60
  %72 = add nsw i32 %58, %62
  %73 = ashr i32 %72, 1
  br label %74

74:                                               ; preds = %71, %64
  %.0.us = phi i32 [ %70, %64 ], [ %73, %71 ]
  %75 = add i32 %44, %.0.us
  %76 = ashr i32 %75, %29
  switch i32 %9, label %81 [
    i32 12, label %79
    i32 10, label %77
  ]

77:                                               ; preds = %74
  %78 = tail call i32 @llvm.umin.i32(i32 %76, i32 1023)
  br label %clip_pixel_highbd.exit.us

79:                                               ; preds = %74
  %80 = tail call i32 @llvm.umin.i32(i32 %76, i32 4095)
  br label %clip_pixel_highbd.exit.us

81:                                               ; preds = %74
  %82 = tail call i32 @llvm.umin.i32(i32 %76, i32 255)
  br label %clip_pixel_highbd.exit.us

clip_pixel_highbd.exit.us:                        ; preds = %81, %79, %77
  %.sink.i.us = phi i32 [ %80, %79 ], [ %78, %77 ], [ %82, %81 ]
  %83 = icmp slt i32 %76, 0
  %84 = trunc nuw nsw i32 %.sink.i.us to i16
  %.0.i.us = select i1 %83, i16 0, i16 %84
  br label %87

85:                                               ; preds = %._crit_edge.us
  %86 = trunc i32 %58 to i16
  br label %87

87:                                               ; preds = %85, %clip_pixel_highbd.exit.us
  %invariant.gep98.sink = phi ptr [ %invariant.gep98, %85 ], [ %invariant.gep96, %clip_pixel_highbd.exit.us ]
  %.sink = phi i16 [ %86, %85 ], [ %.0.i.us, %clip_pixel_highbd.exit.us ]
  %gep99 = getelementptr i16, ptr %invariant.gep98.sink, i64 %indvars.iv84
  store i16 %.sink, ptr %gep99, align 2
  %indvars.iv.next85 = add nuw nsw i64 %indvars.iv84, 1
  %exitcond88.not = icmp eq i64 %indvars.iv.next85, %wide.trip.count87
  br i1 %exitcond88.not, label %._crit_edge79.us, label %.preheader.us, !llvm.loop !67

88:                                               ; preds = %.lr.ph.us, %88
  %indvars.iv = phi i64 [ 0, %.lr.ph.us ], [ %indvars.iv.next, %88 ]
  %.06776.us = phi i32 [ 0, %.lr.ph.us ], [ %95, %88 ]
  %89 = getelementptr inbounds nuw i16, ptr %34, i64 %indvars.iv
  %90 = load i16, ptr %89, align 2
  %91 = sext i16 %90 to i32
  %gep = getelementptr i16, ptr %invariant.gep, i64 %indvars.iv
  %92 = load i16, ptr %gep, align 2
  %93 = zext i16 %92 to i32
  %94 = mul nsw i32 %93, %91
  %95 = add nsw i32 %94, %.06776.us
  %indvars.iv.next = add nuw nsw i64 %indvars.iv, 1
  %exitcond.not = icmp eq i64 %indvars.iv.next, %wide.trip.count
  br i1 %exitcond.not, label %._crit_edge.us, label %88, !llvm.loop !68

.preheader.us:                                    ; preds = %.preheader75.us, %87
  %indvars.iv84 = phi i64 [ 0, %.preheader75.us ], [ %indvars.iv.next85, %87 ]
  %96 = load i16, ptr %15, align 8
  %.not = icmp eq i16 %96, 0
  br i1 %.not, label %._crit_edge.us, label %.lr.ph.us

.lr.ph.us:                                        ; preds = %.preheader.us
  %97 = trunc nuw nsw i64 %indvars.iv84 to i32
  %98 = add i32 %49, %97
  %99 = sext i32 %98 to i64
  %wide.trip.count = zext i16 %96 to i64
  %invariant.gep = getelementptr i16, ptr %0, i64 %99
  br label %88

._crit_edge79.us:                                 ; preds = %87
  %indvars.iv.next90 = add nuw nsw i64 %indvars.iv89, 1
  %exitcond93.not = icmp eq i64 %indvars.iv.next90, %wide.trip.count92
  br i1 %exitcond93.not, label %._crit_edge81, label %.preheader75.us, !llvm.loop !69

._crit_edge81:                                    ; preds = %._crit_edge79.us, %.preheader75.lr.ph, %10
  ret void
}